target datalayout = "e-m:e-p270:32:32-p271:32:32-p272:64:64-i64:64-i128:128-f80:128-n8:16:32:64-S128"
target triple = "x86_64-pc-linux-gnu"

%class.ciType = type <{ %class.ciMetadata, i8, [7 x i8] }>
%class.ciMetadata = type { %class.ciBaseObject.base, ptr }
%class.ciBaseObject.base = type <{ ptr, i32 }>
%class.ciType.base = type <{ %class.ciMetadata, i8 }>
%class.ciReturnAddress = type { %class.ciType.base, i32 }
%class.ciBaseObject = type <{ ptr, i32, [4 x i8] }>

@_ZTV10ciMetadata = external unnamed_addr constant { [18 x ptr] }, align 8
@_ZTV12ciBaseObject = linkonce_odr hidden unnamed_addr constant { [6 x ptr] } { [6 x ptr] [ptr null, ptr null, ptr @_ZN12ciBaseObject11type_stringEv, ptr @_ZNK12ciBaseObject9is_symbolEv, ptr @_ZNK12ciBaseObject9is_objectEv, ptr @_ZNK12ciBaseObject11is_metadataEv] }, comdat, align 8

; Function Attrs: mustprogress nounwind uwtable
define linkonce_odr hidden void @_ZN12ciBaseObjectC2Ev(ptr noundef nonnull align 8 dereferenceable(12) %0) unnamed_addr #1 comdat align 2 {
  %2 = alloca ptr, align 8
  store ptr %0, ptr %2, align 8
  %3 = load ptr, ptr %2, align 8
  store ptr getelementptr inbounds inrange(-16, 32) ({ [6 x ptr] }, ptr @_ZTV12ciBaseObject, i32 0, i32 0, i32 2), ptr %3, align 8
  %4 = getelementptr inbounds %class.ciBaseObject, ptr %3, i32 0, i32 1
  store i32 0, ptr %4, align 8
  ret void
}

; Function Attrs: mustprogress nounwind uwtable
define linkonce_odr hidden void @_ZN10ciMetadataC2Ev(ptr noundef nonnull align 8 dereferenceable(24) %0) unnamed_addr #1 comdat align 2 {
  %2 = alloca ptr, align 8
  store ptr %0, ptr %2, align 8
  %3 = load ptr, ptr %2, align 8
  call void @_ZN12ciBaseObjectC2Ev(ptr noundef nonnull align 8 dereferenceable(12) %3)
  store ptr getelementptr inbounds inrange(-16, 128) ({ [18 x ptr] }, ptr @_ZTV10ciMetadata, i32 0, i32 0, i32 2), ptr %3, align 8
  %4 = getelementptr inbounds %class.ciMetadata, ptr %3, i32 0, i32 1
  store ptr null, ptr %4, align 8
  ret void
}

; Function Attrs: mustprogress nounwind uwtable
define hidden void @_ZN6ciTypeC2E9BasicType(ptr noundef nonnull align 8 dereferenceable(25) %0, i8 noundef zeroext %1) unnamed_addr #1 align 2 {
  %3 = alloca ptr, align 8
  %4 = alloca i8, align 1
  store ptr %0, ptr %3, align 8
  store i8 %1, ptr %4, align 1
  %5 = load ptr, ptr %3, align 8
  call void @_ZN10ciMetadataC2Ev(ptr noundef nonnull align 8 dereferenceable(24) %5)
  store ptr getelementptr inbounds inrange(-16, 144) ({ [20 x ptr] }, ptr @_ZTV6ciType, i32 0, i32 0, i32 2), ptr %5, align 8
  %6 = load i8, ptr %4, align 1
  %7 = getelementptr inbounds %class.ciType, ptr %5, i32 0, i32 1
  store i8 %6, ptr %7, align 8
  ret void
}

; Function Attrs: mustprogress nounwind uwtable
define hidden void @_ZN15ciReturnAddressC2Ei(ptr noundef nonnull align 8 dereferenceable(32) %0, i32 noundef %1) unnamed_addr #1 align 2 {
  %3 = alloca ptr, align 8
  %4 = alloca i32, align 4
  store ptr %0, ptr %3, align 8
  store i32 %1, ptr %4, align 4
  %5 = load ptr, ptr %3, align 8
  call void @_ZN6ciTypeC2E9BasicType(ptr noundef nonnull align 8 dereferenceable(25) %5, i8 noundef zeroext 15)
  store ptr getelementptr inbounds inrange(-16, 144) ({ [20 x ptr] }, ptr @_ZTV15ciReturnAddress, i32 0, i32 0, i32 2), ptr %5, align 8
  %6 = load i32, ptr %4, align 4
  %7 = getelementptr inbounds %class.ciReturnAddress, ptr %5, i32 0, i32 1
  store i32 %6, ptr %7, align 4
  ret void
}