; Function Attrs: mustprogress nofree norecurse nosync nounwind willreturn memory(argmem: write) uwtable
define hidden void @_ZN15ciReturnAddressC2Ei(ptr nocapture noundef nonnull writeonly align 8 dereferenceable(32) %0, i32 noundef %1) unnamed_addr #0 align 2 {
  %3 = getelementptr inbounds i8, ptr %0, i64 8
  store i32 0, ptr %3, align 8
  %4 = getelementptr inbounds i8, ptr %0, i64 16
  store ptr null, ptr %4, align 8
  %5 = getelementptr inbounds i8, ptr %0, i64 24
  store i8 15, ptr %5, align 8
  store ptr getelementptr inbounds inrange(-16, 144) (i8, ptr @_ZTV15ciReturnAddress, i64 16), ptr %0, align 8
  %6 = getelementptr inbounds i8, ptr %0, i64 28
  store i32 %1, ptr %6, align 4
  ret void
}